; Function Attrs: mustprogress nounwind willreturn uwtable
define void @Ver_ParseFreeBundle(ptr noundef captures(none) %0) local_unnamed_addr #6 {
  %2 = load ptr, ptr %0, align 8, !tbaa !80
  %.not = icmp eq ptr %2, null
  br i1 %.not, label %4, label %3

3:                                                ; preds = %1
  tail call void @free(ptr noundef nonnull %2) #20
  store ptr null, ptr %0, align 8, !tbaa !80
  br label %4

4:                                                ; preds = %1, %3
  %5 = getelementptr inbounds nuw i8, ptr %0, i64 8
  %6 = load ptr, ptr %5, align 8, !tbaa !77
  %7 = getelementptr inbounds nuw i8, ptr %6, i64 8
  %8 = load ptr, ptr %7, align 8, !tbaa !23
  %.not.i = icmp eq ptr %8, null
  br i1 %.not.i, label %Vec_PtrFree.exit, label %9

9:                                                ; preds = %4
  tail call void @free(ptr noundef nonnull %8) #20
  br label %Vec_PtrFree.exit

Vec_PtrFree.exit:                                 ; preds = %4, %9
  tail call void @free(ptr noundef nonnull %6) #20
  tail call void @free(ptr noundef nonnull %0) #20
  ret void
}